; Function Attrs: nounwind uwtable
define void @Min_ManTest2(ptr noundef %0) local_unnamed_addr #0 {
  %2 = tail call ptr @Min_ManCollect(ptr noundef %0, i32 noundef 100000, i32 noundef 100000, i32 noundef 10000, i32 noundef 20, i32 noundef 1, i32 noundef 0, i32 noundef 1, i32 noundef 1)
  %3 = icmp eq ptr %2, null
  br i1 %3, label %Vec_WrdFreeP.exit, label %4

4:                                                ; preds = %1
  %5 = getelementptr inbounds nuw i8, ptr %2, i64 8
  %6 = load ptr, ptr %5, align 8, !tbaa !136
  %.not.i = icmp eq ptr %6, null
  br i1 %.not.i, label %7, label %.thread.i

.thread.i:                                        ; preds = %4
  tail call void @free(ptr noundef nonnull %6) #27
  br label %7

7:                                                ; preds = %.thread.i, %4
  tail call void @free(ptr noundef nonnull %2) #27
  br label %Vec_WrdFreeP.exit

Vec_WrdFreeP.exit:                                ; preds = %1, %7
  ret void
}